; Function Attrs: mustprogress uwtable
define internal void @_ZL17evaluate_distanceRKN3gmx20SelMethodEvalContextEP13gmx_ana_pos_tP18gmx_ana_selvalue_tPv(ptr nocapture nonnull readnone align 8 %0, ptr nocapture noundef readonly %1, ptr nocapture noundef %2, ptr noundef %3) #0 {
  %5 = alloca %"class.gmx::AnalysisNeighborhoodPositions", align 8
  %6 = getelementptr inbounds i8, ptr %1, i64 48
  %7 = load i32, ptr %6, align 8
  %8 = getelementptr inbounds i8, ptr %2, i64 4
  store i32 %7, ptr %8, align 4
  %9 = icmp sgt i32 %7, 0
  br i1 %9, label %.lr.ph, label %._crit_edge

.lr.ph:                                           ; preds = %4
  %10 = getelementptr inbounds i8, ptr %3, i64 168
  %11 = getelementptr inbounds i8, ptr %5, i64 4
  %12 = getelementptr inbounds i8, ptr %5, i64 8
  %13 = getelementptr inbounds i8, ptr %5, i64 16
  %14 = getelementptr inbounds i8, ptr %2, i64 8
  br label %15

15:                                               ; preds = %.lr.ph, %15
  %indvars.iv = phi i64 [ 0, %.lr.ph ], [ %indvars.iv.next, %15 ]
  %16 = load ptr, ptr %1, align 8
  %17 = getelementptr inbounds [3 x float], ptr %16, i64 %indvars.iv
  store i32 1, ptr %5, align 8
  store i32 -1, ptr %11, align 4
  store ptr %17, ptr %12, align 8
  call void @llvm.memset.p0.i64(ptr noundef nonnull align 8 dereferenceable(16) %13, i8 0, i64 16, i1 false)
  %18 = call noundef float @_ZNK3gmx26AnalysisNeighborhoodSearch15minimumDistanceERKNS_29AnalysisNeighborhoodPositionsE(ptr noundef nonnull align 8 dereferenceable(16) %10, ptr noundef nonnull align 8 dereferenceable(32) %5)
  %19 = load ptr, ptr %14, align 8
  %20 = getelementptr inbounds float, ptr %19, i64 %indvars.iv
  store float %18, ptr %20, align 4
  %indvars.iv.next = add nuw nsw i64 %indvars.iv, 1
  %21 = load i32, ptr %6, align 8
  %22 = sext i32 %21 to i64
  %23 = icmp slt i64 %indvars.iv.next, %22
  br i1 %23, label %15, label %._crit_edge, !llvm.loop !5

._crit_edge:                                      ; preds = %15, %4
  ret void
}